; Function Attrs: nounwind uwtable
define nonnull ptr @l_Lean_IR_HasIndex_visitArg___boxed(ptr noundef %0, ptr noundef %1) local_unnamed_addr #0 {
  %3 = ptrtoint ptr %1 to i64
  %4 = and i64 %3, 1
  %.not.i.i = icmp eq i64 %4, 0
  br i1 %.not.i.i, label %8, label %5

5:                                                ; preds = %2
  %6 = lshr i64 %3, 1
  %7 = trunc i64 %6 to i32
  br label %lean_obj_tag.exit.i

8:                                                ; preds = %2
  %9 = getelementptr i8, ptr %1, i64 4
  %.val.i.i = load i32, ptr %9, align 4
  %10 = lshr i32 %.val.i.i, 24
  br label %lean_obj_tag.exit.i

lean_obj_tag.exit.i:                              ; preds = %8, %5
  %.0.i6.i = phi i32 [ %7, %5 ], [ %10, %8 ]
  %11 = icmp eq i32 %.0.i6.i, 0
  br i1 %11, label %12, label %l_Lean_IR_HasIndex_visitArg.exit

12:                                               ; preds = %lean_obj_tag.exit.i
  %13 = getelementptr inbounds nuw i8, ptr %1, i64 8
  %14 = load ptr, ptr %13, align 8, !tbaa !13
  %15 = ptrtoint ptr %0 to i64
  %16 = and i64 %15, 1
  %17 = icmp ne i64 %16, 0
  %18 = ptrtoint ptr %14 to i64
  %19 = and i64 %18, 1
  %20 = icmp ne i64 %19, 0
  %or.cond.i = select i1 %17, i1 %20, i1 false
  br i1 %or.cond.i, label %21, label %.critedge.i.i, !prof !23

21:                                               ; preds = %12
  %22 = icmp eq ptr %0, %14
  br label %lean_nat_eq.exit.i

.critedge.i.i:                                    ; preds = %12
  %23 = tail call zeroext i1 @lean_nat_big_eq(ptr noundef %0, ptr noundef %14) #3
  br label %lean_nat_eq.exit.i

lean_nat_eq.exit.i:                               ; preds = %.critedge.i.i, %21
  %.0.i.i = phi i1 [ %22, %21 ], [ %23, %.critedge.i.i ]
  %24 = select i1 %.0.i.i, i64 3, i64 1
  br label %l_Lean_IR_HasIndex_visitArg.exit

l_Lean_IR_HasIndex_visitArg.exit:                 ; preds = %lean_obj_tag.exit.i, %lean_nat_eq.exit.i
  %.0.i = phi i64 [ %24, %lean_nat_eq.exit.i ], [ 1, %lean_obj_tag.exit.i ]
  br i1 %.not.i.i, label %25, label %lean_dec.exit5

25:                                               ; preds = %l_Lean_IR_HasIndex_visitArg.exit
  %26 = load i32, ptr %1, align 4, !tbaa !4
  %27 = icmp sgt i32 %26, 1
  br i1 %27, label %28, label %30, !prof !9

28:                                               ; preds = %25
  %29 = add nsw i32 %26, -1
  store i32 %29, ptr %1, align 4, !tbaa !4
  br label %lean_dec.exit5

30:                                               ; preds = %25
  %.not.i = icmp eq i32 %26, 0
  br i1 %.not.i, label %lean_dec.exit5, label %31

31:                                               ; preds = %30
  tail call void @lean_dec_ref_cold(ptr noundef nonnull %1) #3
  br label %lean_dec.exit5

lean_dec.exit5:                                   ; preds = %31, %30, %28, %l_Lean_IR_HasIndex_visitArg.exit
  %32 = ptrtoint ptr %0 to i64
  %33 = and i64 %32, 1
  %.not8 = icmp eq i64 %33, 0
  br i1 %.not8, label %34, label %lean_dec.exit

34:                                               ; preds = %lean_dec.exit5
  %35 = load i32, ptr %0, align 4, !tbaa !4
  %36 = icmp sgt i32 %35, 1
  br i1 %36, label %37, label %39, !prof !9

37:                                               ; preds = %34
  %38 = add nsw i32 %35, -1
  store i32 %38, ptr %0, align 4, !tbaa !4
  br label %lean_dec.exit

39:                                               ; preds = %34
  %.not.i6 = icmp eq i32 %35, 0
  br i1 %.not.i6, label %lean_dec.exit, label %40

40:                                               ; preds = %39
  tail call void @lean_dec_ref_cold(ptr noundef nonnull %0) #3
  br label %lean_dec.exit

lean_dec.exit:                                    ; preds = %40, %39, %37, %lean_dec.exit5
  %41 = inttoptr i64 %.0.i to ptr
  ret ptr %41
}